target datalayout = "e-m:e-p270:32:32-p271:32:32-p272:64:64-i64:64-i128:128-f80:128-n8:16:32:64-S128"
target triple = "x86_64-pc-linux-gnu"

%struct.H5O_link_t = type { i32, i8, i64, i32, ptr, %union.anon }
%union.anon = type { %struct.H5O_link_ud_t }
%struct.H5O_link_ud_t = type { ptr, i64 }

@.str = private unnamed_addr constant [100 x i8] c"generated/home/dtcxzyw/WorkSpace/Projects/compilers/llvm-opt-benchmark/bench/hdf5/hdf5/src/H5Lint.c\00", align 1
@H5E_LINK_g = external global i64, align 8
@H5E_CANTINIT_g = external global i64, align 8
@.str.5 = private unnamed_addr constant [36 x i8] c"unable to create new link to object\00", align 1
@__func__.H5L_link_object = private unnamed_addr constant [16 x i8] c"H5L_link_object\00", align 1

; Function Attrs: nounwind uwtable
define i32 @H5L_link_object(ptr noundef %0, ptr noundef %1, ptr noundef %2, i64 noundef %3) #0 {
  %5 = alloca ptr, align 8
  %6 = alloca ptr, align 8
  %7 = alloca ptr, align 8
  %8 = alloca i64, align 8
  %9 = alloca %struct.H5O_link_t, align 8
  %10 = alloca i32, align 4
  %11 = alloca i8, align 1
  store ptr %0, ptr %5, align 8
  store ptr %1, ptr %6, align 8
  store ptr %2, ptr %7, align 8
  store i64 %3, ptr %8, align 8
  store i32 0, ptr %10, align 4
  store i8 0, ptr %11, align 1
  %12 = getelementptr inbounds %struct.H5O_link_t, ptr %9, i32 0, i32 0
  store i32 0, ptr %12, align 8
  %13 = load ptr, ptr %5, align 8
  %14 = load ptr, ptr %6, align 8
  %15 = load ptr, ptr %7, align 8
  %16 = load i64, ptr %8, align 8
  %17 = call i32 @H5L__create_real(ptr noundef %13, ptr noundef %14, ptr noundef null, ptr noundef null, ptr noundef %9, ptr noundef %15, i64 noundef %16)
  %18 = icmp slt i32 %17, 0
  br i1 %18, label %19, label %34

19:                                               ; preds = %4
  br label %20

20:                                               ; preds = %19
  br label %21

21:                                               ; preds = %20
  br label %22

22:                                               ; preds = %21
  %23 = load i64, ptr @H5E_LINK_g, align 8
  %24 = load i64, ptr @H5E_CANTINIT_g, align 8
  %25 = call i32 (ptr, ptr, i32, i64, i64, ptr, ...) @H5E_printf_stack(ptr noundef @.str, ptr noundef @__func__.H5L_link_object, i32 noundef 492, i64 noundef %23, i64 noundef %24, ptr noundef @.str.5)
  br label %26

26:                                               ; preds = %22
  store i8 1, ptr %11, align 1
  %27 = load i8, ptr %11, align 1
  %28 = trunc i8 %27 to i1
  %29 = zext i1 %28 to i8
  store i8 %29, ptr %11, align 1
  br label %30

30:                                               ; preds = %26
  br label %31

31:                                               ; preds = %30
  store i32 -1, ptr %10, align 4
  br label %35

32:                                               ; No predecessors!
  br label %33

33:                                               ; preds = %32
  br label %34

34:                                               ; preds = %33, %4
  br label %35

35:                                               ; preds = %34, %31
  %36 = load i32, ptr %10, align 4
  ret i32 %36
}