; Function Attrs: nounwind uwtable
define range(i32 -1, 1) i32 @H5L_link_object(ptr noundef %0, ptr noundef %1, ptr noundef %2, i64 noundef %3) local_unnamed_addr #0 {
  %5 = alloca %struct.H5O_link_t, align 8
  store i32 0, ptr %5, align 8
  %6 = call fastcc i32 @H5L__create_real(ptr noundef %0, ptr noundef %1, ptr noundef null, ptr noundef null, ptr noundef nonnull %5, ptr noundef %2, i64 noundef %3)
  %7 = icmp slt i32 %6, 0
  br i1 %7, label %8, label %12

8:                                                ; preds = %4
  %9 = load i64, ptr @H5E_LINK_g, align 8
  %10 = load i64, ptr @H5E_CANTINIT_g, align 8
  %11 = call i32 (ptr, ptr, i32, i64, i64, ptr, ...) @H5E_printf_stack(ptr noundef nonnull @.str, ptr noundef nonnull @__func__.H5L_link_object, i32 noundef 492, i64 noundef %9, i64 noundef %10, ptr noundef nonnull @.str.5) #10
  br label %12

12:                                               ; preds = %4, %8
  %.0 = phi i32 [ -1, %8 ], [ 0, %4 ]
  ret i32 %.0
}